###############################################################################
#
# IAR C/C++ Compiler V10.20.1.5333 for 8051               29/Jul/2020  09:18:31
# Copyright 2004-2018 IAR Systems AB.
# PC-locked license - IAR Embedded Workbench for 8051
#
#    Core               =  plain
#    Code model         =  banked
#    Data model         =  large
#    Calling convention =  xdata reentrant
#    Constant location  =  data_rom
#    Dptr setup         =  1,16
#                          
#    Source file        =  
#        C:\Users\TS-577\Desktop\Zigbee
#        workspace\LightDevice\Projects\zstack\HomeAutomation\Light\Source\OSAL_Light.c
#    Command line       =  
#        -f C:\Users\TS-577\AppData\Local\Temp\EW4CAF.tmp
#        ("C:\Users\TS-577\Desktop\Zigbee
#        workspace\LightDevice\Projects\zstack\HomeAutomation\Light\Source\OSAL_Light.c"
#        -D BDB_REPORTING -D SECURE=1 -D TC_LINKKEY_JOIN -D NV_INIT -D
#        NV_RESTORE -D xPOWER_SAVING -D NWK_AUTO_POLL -D xZTOOL_P1 -D xMT_TASK
#        -D xMT_APP_FUNC -D xMT_SYS_FUNC -D xMT_ZDO_FUNC -D xMT_ZDO_MGMT -D
#        xMT_APP_CNF_FUNC -D xLCD_SUPPORTED=DEBUG -D MULTICAST_ENABLED=FALSE -D
#        ZCL_READ -D ZCL_DISCOVER -D ZCL_WRITE -D ZCL_BASIC -D ZCL_IDENTIFY -D
#        ZCL_ON_OFF -D ZCL_SCENES -D ZCL_GROUPS -D ZCL_ON_OFF -D REFLECTOR -D
#        xZCL_REPORT -lC "C:\Users\TS-577\Desktop\Zigbee
#        workspace\LightDevice\Projects\zstack\HomeAutomation\Light\CC2530DB\EndDeviceEB\List"
#        -lA "C:\Users\TS-577\Desktop\Zigbee
#        workspace\LightDevice\Projects\zstack\HomeAutomation\Light\CC2530DB\EndDeviceEB\List"
#        --diag_suppress Pe001,Pa010 -o "C:\Users\TS-577\Desktop\Zigbee
#        workspace\LightDevice\Projects\zstack\HomeAutomation\Light\CC2530DB\EndDeviceEB\Obj"
#        -e --debug --core=plain --dptr=16,1 --data_model=large
#        --code_model=banked --calling_convention=xdata_reentrant
#        --place_constants=data_rom --nr_virtual_regs 16 -f
#        "C:\Users\TS-577\Desktop\Zigbee
#        workspace\LightDevice\Projects\zstack\HomeAutomation\Light\CC2530DB\..\..\..\Tools\CC2530DB\f8wEndev.cfg"
#        (-DCPU32MHZ -DROOT=__near_func -DMAC_CFG_TX_DATA_MAX=3
#        -DMAC_CFG_TX_MAX=6 -DMAC_CFG_RX_MAX=3) -f
#        "C:\Users\TS-577\Desktop\Zigbee
#        workspace\LightDevice\Projects\zstack\HomeAutomation\Light\CC2530DB\..\..\..\Tools\CC2530DB\f8wConfig.cfg"
#        (-DZIGBEEPRO -DSECURE=1 -DZG_SECURE_DYNAMIC=0 -DREFLECTOR
#        -DDEFAULT_CHANLIST=0x00002000 -DZDAPP_CONFIG_PAN_ID=0xFFFF
#        -DNWK_START_DELAY=100 -DEXTENDED_JOINING_RANDOM_MASK=0x007F
#        -DBEACON_REQUEST_DELAY=100 -DBEACON_REQ_DELAY_MASK=0x00FF
#        -DLINK_STATUS_JITTER_MASK=0x007F -DROUTE_EXPIRY_TIME=30
#        -DAPSC_ACK_WAIT_DURATION_POLLED=3000 -DNWK_INDIRECT_MSG_TIMEOUT=7
#        -DMAX_RREQ_ENTRIES=8 -DAPSC_MAX_FRAME_RETRIES=3
#        -DNWK_MAX_DATA_RETRIES=2 -DMAX_POLL_FAILURE_RETRIES=2 -DMAX_BCAST=9
#        -DAPS_MAX_GROUPS=16 -DMAX_RTG_ENTRIES=40 -DNWK_MAX_BINDING_ENTRIES=4
#        -DMAX_BINDING_CLUSTER_IDS=4 -DDEFAULT_KEY={0} -DMAC_MAX_FRAME_SIZE=116
#        -DZDNWKMGR_MIN_TRANSMISSIONS=20 "-DCONST=const __code"
#        -DGENERIC=__generic -DRFD_RCVC_ALWAYS_ON=TRUE -DPOLL_RATE=1000
#        -DQUEUED_POLL_RATE=100 -DRESPONSE_POLL_RATE=100 -DREJOIN_POLL_RATE=440
#        -DREJOIN_BACKOFF=900000 -DREJOIN_SCAN=900000 -DENABLE_LED4_DISABLE_S1)
#        -f "C:\Users\TS-577\Desktop\Zigbee
#        workspace\LightDevice\Projects\zstack\HomeAutomation\Light\CC2530DB\..\..\..\Tools\CC2530DB\f8wZCL.cfg"
#        -I "C:\Users\TS-577\Desktop\Zigbee
#        workspace\LightDevice\Projects\zstack\HomeAutomation\Light\CC2530DB\"
#        -I "C:\Users\TS-577\Desktop\Zigbee
#        workspace\LightDevice\Projects\zstack\HomeAutomation\Light\CC2530DB\..\Source\"
#        -I "C:\Users\TS-577\Desktop\Zigbee
#        workspace\LightDevice\Projects\zstack\HomeAutomation\Light\CC2530DB\..\..\Source\"
#        -I "C:\Users\TS-577\Desktop\Zigbee
#        workspace\LightDevice\Projects\zstack\HomeAutomation\Light\CC2530DB\..\..\..\ZMain\TI2530DB\"
#        -I "C:\Users\TS-577\Desktop\Zigbee
#        workspace\LightDevice\Projects\zstack\HomeAutomation\Light\CC2530DB\..\..\..\..\..\Components\hal\include\"
#        -I "C:\Users\TS-577\Desktop\Zigbee
#        workspace\LightDevice\Projects\zstack\HomeAutomation\Light\CC2530DB\..\..\..\..\..\Components\hal\target\CC2530EB\"
#        -I "C:\Users\TS-577\Desktop\Zigbee
#        workspace\LightDevice\Projects\zstack\HomeAutomation\Light\CC2530DB\..\..\..\..\..\Components\mac\include\"
#        -I "C:\Users\TS-577\Desktop\Zigbee
#        workspace\LightDevice\Projects\zstack\HomeAutomation\Light\CC2530DB\..\..\..\..\..\Components\mac\high_level\"
#        -I "C:\Users\TS-577\Desktop\Zigbee
#        workspace\LightDevice\Projects\zstack\HomeAutomation\Light\CC2530DB\..\..\..\..\..\Components\mac\low_level\srf04\"
#        -I "C:\Users\TS-577\Desktop\Zigbee
#        workspace\LightDevice\Projects\zstack\HomeAutomation\Light\CC2530DB\..\..\..\..\..\Components\mac\low_level\srf04\single_chip\"
#        -I "C:\Users\TS-577\Desktop\Zigbee
#        workspace\LightDevice\Projects\zstack\HomeAutomation\Light\CC2530DB\..\..\..\..\..\Components\mt\"
#        -I "C:\Users\TS-577\Desktop\Zigbee
#        workspace\LightDevice\Projects\zstack\HomeAutomation\Light\CC2530DB\..\..\..\..\..\Components\osal\include\"
#        -I "C:\Users\TS-577\Desktop\Zigbee
#        workspace\LightDevice\Projects\zstack\HomeAutomation\Light\CC2530DB\..\..\..\..\..\Components\services\saddr\"
#        -I "C:\Users\TS-577\Desktop\Zigbee
#        workspace\LightDevice\Projects\zstack\HomeAutomation\Light\CC2530DB\..\..\..\..\..\Components\services\sdata\"
#        -I "C:\Users\TS-577\Desktop\Zigbee
#        workspace\LightDevice\Projects\zstack\HomeAutomation\Light\CC2530DB\..\..\..\..\..\Components\stack\af\"
#        -I "C:\Users\TS-577\Desktop\Zigbee
#        workspace\LightDevice\Projects\zstack\HomeAutomation\Light\CC2530DB\..\..\..\..\..\Components\stack\bdb\"
#        -I "C:\Users\TS-577\Desktop\Zigbee
#        workspace\LightDevice\Projects\zstack\HomeAutomation\Light\CC2530DB\..\..\..\..\..\Components\stack\gp\"
#        -I "C:\Users\TS-577\Desktop\Zigbee
#        workspace\LightDevice\Projects\zstack\HomeAutomation\Light\CC2530DB\..\..\..\..\..\Components\stack\nwk\"
#        -I "C:\Users\TS-577\Desktop\Zigbee
#        workspace\LightDevice\Projects\zstack\HomeAutomation\Light\CC2530DB\..\..\..\..\..\Components\stack\sapi\"
#        -I "C:\Users\TS-577\Desktop\Zigbee
#        workspace\LightDevice\Projects\zstack\HomeAutomation\Light\CC2530DB\..\..\..\..\..\Components\stack\sec\"
#        -I "C:\Users\TS-577\Desktop\Zigbee
#        workspace\LightDevice\Projects\zstack\HomeAutomation\Light\CC2530DB\..\..\..\..\..\Components\stack\sys\"
#        -I "C:\Users\TS-577\Desktop\Zigbee
#        workspace\LightDevice\Projects\zstack\HomeAutomation\Light\CC2530DB\..\..\..\..\..\Components\stack\zcl\"
#        -I "C:\Users\TS-577\Desktop\Zigbee
#        workspace\LightDevice\Projects\zstack\HomeAutomation\Light\CC2530DB\..\..\..\..\..\Components\stack\zdo\"
#        -I "C:\Users\TS-577\Desktop\Zigbee
#        workspace\LightDevice\Projects\zstack\HomeAutomation\Light\CC2530DB\..\..\..\..\..\Components\zmac\"
#        -I "C:\Users\TS-577\Desktop\Zigbee
#        workspace\LightDevice\Projects\zstack\HomeAutomation\Light\CC2530DB\..\..\..\..\..\Components\zmac\f8w\"
#        -Ohz --require_prototypes)
#    Locale             =  Japanese_JPN.932
#    List file          =  
#        C:\Users\TS-577\Desktop\Zigbee
#        workspace\LightDevice\Projects\zstack\HomeAutomation\Light\CC2530DB\EndDeviceEB\List\OSAL_Light.lst
#    Object file        =  
#        C:\Users\TS-577\Desktop\Zigbee
#        workspace\LightDevice\Projects\zstack\HomeAutomation\Light\CC2530DB\EndDeviceEB\Obj\OSAL_Light.r51
#
###############################################################################

C:\Users\TS-577\Desktop\Zigbee workspace\LightDevice\Projects\zstack\HomeAutomation\Light\Source\OSAL_Light.c
      1          /**************************************************************************************************
      2            Filename:       OSAL_SampleLight.c
      3            Revised:        $Date: 2008-02-07 12:10:00 -0800 (Thu, 07 Feb 2008) $
      4            Revision:       $Revision: 16360 $
      5          
      6            Description:    This file contains all the settings and other functions
      7                            that the user should set and change.
      8          
      9          
     10            Copyright 2006-2007 Texas Instruments Incorporated. All rights reserved.
     11          
     12            IMPORTANT: Your use of this Software is limited to those specific rights
     13            granted under the terms of a software license agreement between the user
     14            who downloaded the software, his/her employer (which must be your employer)
     15            and Texas Instruments Incorporated (the "License").  You may not use this
     16            Software unless you agree to abide by the terms of the License. The License
     17            limits your use, and you acknowledge, that the Software may not be modified,
     18            copied or distributed unless embedded on a Texas Instruments microcontroller
     19            or used solely and exclusively in conjunction with a Texas Instruments radio
     20            frequency transceiver, which is integrated into your product.  Other than for
     21            the foregoing purpose, you may not use, reproduce, copy, prepare derivative
     22            works of, modify, distribute, perform, display or sell this Software and/or
     23            its documentation for any purpose.
     24          
     25            YOU FURTHER ACKNOWLEDGE AND AGREE THAT THE SOFTWARE AND DOCUMENTATION ARE
     26            PROVIDED “AS IS” WITHOUT WARRANTY OF ANY KIND, EITHER EXPRESS OR IMPLIED,
     27            INCLUDING WITHOUT LIMITATION, ANY WARRANTY OF MERCHANTABILITY, TITLE,
     28            NON-INFRINGEMENT AND FITNESS FOR A PARTICULAR PURPOSE. IN NO EVENT SHALL
     29            TEXAS INSTRUMENTS OR ITS LICENSORS BE LIABLE OR OBLIGATED UNDER CONTRACT,
     30            NEGLIGENCE, STRICT LIABILITY, CONTRIBUTION, BREACH OF WARRANTY, OR OTHER
     31            LEGAL EQUITABLE THEORY ANY DIRECT OR INDIRECT DAMAGES OR EXPENSES
     32            INCLUDING BUT NOT LIMITED TO ANY INCIDENTAL, SPECIAL, INDIRECT, PUNITIVE
     33            OR CONSEQUENTIAL DAMAGES, LOST PROFITS OR LOST DATA, COST OF PROCUREMENT
     34            OF SUBSTITUTE GOODS, TECHNOLOGY, SERVICES, OR ANY CLAIMS BY THIRD PARTIES
     35            (INCLUDING BUT NOT LIMITED TO ANY DEFENSE THEREOF), OR OTHER SIMILAR COSTS.
     36          
     37            Should you have any questions regarding your right to use this Software,
     38            contact Texas Instruments Incorporated at www.TI.com.
     39          **************************************************************************************************/
     40          
     41          /*********************************************************************
     42           * INCLUDES
     43           */
     44          
     45          #include "ZComDef.h"
     46          #include "hal_drivers.h"
     47          #include "OSAL.h"
     48          #include "OSAL_Tasks.h"
     49          
     50          #if defined ( MT_TASK )
     51            #include "MT.h"
     52            #include "MT_TASK.h"
     53          #endif
     54          
     55          #include "nwk.h"
     56          #include "APS.h"
     57          #include "ZDApp.h"
     58          
     59          #include "bdb_interface.h"
     60          
     61          #if !defined (DISABLE_GREENPOWER_BASIC_PROXY) && (ZG_BUILD_RTR_TYPE)
     62            #include "gp_common.h"
     63          #endif  
     64          #if defined ( ZIGBEE_FREQ_AGILITY ) || defined ( ZIGBEE_PANID_CONFLICT )
     65            #include "ZDNwkMgr.h"
     66          #endif
     67          #if defined ( ZIGBEE_FRAGMENTATION )
     68            #include "aps_frag.h"
     69          #endif
     70          
     71          #include "zcl_Light.h"
     72          
     73          /*********************************************************************
     74           * GLOBAL VARIABLES
     75           */
     76          
     77          // The order in this table must be identical to the task initialization calls below in osalInitTask.

   \                                 In  segment XDATA_ROM_C, align 1
     78          const pTaskEventHandlerFn tasksArr[] = {
   \                     tasksArr:
   \   000000   ....         DW `??macEventLoop::?relay`
   \   000002   ....         DW `??nwk_event_loop::?relay`
   \   000004   ....         DW `??Hal_ProcessEvent::?relay`
   \   000006   ....         DW `??APS_event_loop::?relay`
   \   000008   ....         DW `??APSF_ProcessEvent::?relay`
   \   00000A   ....         DW `??ZDApp_event_loop::?relay`
   \   00000C   ....         DW `??ZDNwkMgr_event_loop::?relay`
   \   00000E   ....         DW `??zcl_event_loop::?relay`
   \   000010   ....         DW `??bdb_event_loop::?relay`
   \   000012   ....         DW `??zclLight_event_loop::?relay`
     79            macEventLoop,
     80            nwk_event_loop,
     81          #if !defined (DISABLE_GREENPOWER_BASIC_PROXY) && (ZG_BUILD_RTR_TYPE)
     82            gp_event_loop,
     83          #endif  
     84            Hal_ProcessEvent,
     85            APS_event_loop,
     86          #if defined ( ZIGBEE_FRAGMENTATION )
     87            APSF_ProcessEvent,
     88          #endif
     89            ZDApp_event_loop,
     90          #if defined ( ZIGBEE_FREQ_AGILITY ) || defined ( ZIGBEE_PANID_CONFLICT )
     91            ZDNwkMgr_event_loop,
     92          #endif
     93            zcl_event_loop,
     94            bdb_event_loop,
     95            zclLight_event_loop
     96          };
     97          

   \                                 In  segment XDATA_ROM_C, align 1
     98          const uint8 tasksCnt = sizeof( tasksArr ) / sizeof( tasksArr[0] );
   \                     tasksCnt:
   \   000000   0A           DB 10

   \                                 In  segment XDATA_Z, align 1, keep-with-next
     99          uint16 *tasksEvents;
   \                     tasksEvents:
   \   000000                DS 2
   \   000002                REQUIRE __INIT_XDATA_Z
    100          
    101          /*********************************************************************
    102           * FUNCTIONS
    103           *********************************************************************/
    104          
    105          /*********************************************************************
    106           * @fn      osalInitTasks
    107           *
    108           * @brief   This function invokes the initialization function for each task.
    109           *
    110           * @param   void
    111           *
    112           * @return  none
    113           */

   \                                 In  segment BANKED_CODE, align 1, keep-with-next
    114          void osalInitTasks( void )
   \                     osalInitTasks:
    115          {
   \   000000   C082         PUSH      DPL
   \   000002   C083         PUSH      DPH
   \   000004                ; Saved register size: 2
   \   000004                ; Auto size: 0
    116            uint8 taskID = 0;
    117          
    118            tasksEvents = (uint16 *)osal_mem_alloc( sizeof( uint16 ) * tasksCnt);
   \   000004                ; Setup parameters for call to function osal_mem_alloc
   \   000004   7A14         MOV       R2,#0x14
   \   000006   7B00         MOV       R3,#0x0
   \   000008   12....       LCALL     `??osal_mem_alloc::?relay`; Banked call to: osal_mem_alloc
   \   00000B   90....       MOV       DPTR,#tasksEvents
   \   00000E   EA           MOV       A,R2
   \   00000F   F0           MOVX      @DPTR,A
   \   000010   A3           INC       DPTR
   \   000011   EB           MOV       A,R3
   \   000012   F0           MOVX      @DPTR,A
    119            osal_memset( tasksEvents, 0, (sizeof( uint16 ) * tasksCnt));
   \   000013                ; Setup parameters for call to function osal_memset
   \   000013   7C14         MOV       R4,#0x14
   \   000015   7D00         MOV       R5,#0x0
   \   000017   7900         MOV       R1,#0x0
   \   000019   12....       LCALL     `??osal_memset::?relay`; Banked call to: osal_memset
    120          
    121            macTaskInit( taskID++ );
   \   00001C                ; Setup parameters for call to function macTaskInit
   \   00001C   7900         MOV       R1,#0x0
   \   00001E   12....       LCALL     `??macTaskInit::?relay`; Banked call to: macTaskInit
    122            nwk_init( taskID++ );
   \   000021                ; Setup parameters for call to function nwk_init
   \   000021   7901         MOV       R1,#0x1
   \   000023   12....       LCALL     `??nwk_init::?relay`; Banked call to: nwk_init
    123          #if !defined (DISABLE_GREENPOWER_BASIC_PROXY) && (ZG_BUILD_RTR_TYPE)
    124            gp_Init( taskID++ );
    125          #endif
    126            Hal_Init( taskID++ );
   \   000026                ; Setup parameters for call to function Hal_Init
   \   000026   7902         MOV       R1,#0x2
   \   000028   12....       LCALL     `??Hal_Init::?relay`; Banked call to: Hal_Init
    127          #if defined( MT_TASK )
    128            MT_TaskInit( taskID++ );
    129          #endif
    130            APS_Init( taskID++ );
   \   00002B                ; Setup parameters for call to function APS_Init
   \   00002B   7903         MOV       R1,#0x3
   \   00002D   12....       LCALL     `??APS_Init::?relay`; Banked call to: APS_Init
    131          #if defined ( ZIGBEE_FRAGMENTATION )
    132            APSF_Init( taskID++ );
   \   000030                ; Setup parameters for call to function APSF_Init
   \   000030   7904         MOV       R1,#0x4
   \   000032   12....       LCALL     `??APSF_Init::?relay`; Banked call to: APSF_Init
    133          #endif
    134            ZDApp_Init( taskID++ );
   \   000035                ; Setup parameters for call to function ZDApp_Init
   \   000035   7905         MOV       R1,#0x5
   \   000037   12....       LCALL     `??ZDApp_Init::?relay`; Banked call to: ZDApp_Init
    135          #if defined ( ZIGBEE_FREQ_AGILITY ) || defined ( ZIGBEE_PANID_CONFLICT )
    136            ZDNwkMgr_Init( taskID++ );
   \   00003A                ; Setup parameters for call to function ZDNwkMgr_Init
   \   00003A   7906         MOV       R1,#0x6
   \   00003C   12....       LCALL     `??ZDNwkMgr_Init::?relay`; Banked call to: ZDNwkMgr_Init
    137          #endif
    138            // Added to include TouchLink functionality 
    139            #if defined ( INTER_PAN )
    140              StubAPS_Init( taskID++ );
    141            #endif
    142            // Added to include TouchLink initiator functionality 
    143            #if defined( BDB_TL_INITIATOR )
    144              touchLinkInitiator_Init( taskID++ );
    145            #endif
    146            // Added to include TouchLink target functionality 
    147            #if defined ( BDB_TL_TARGET )
    148              touchLinkTarget_Init( taskID++ );
    149            #endif
    150            zcl_Init( taskID++ );
   \   00003F                ; Setup parameters for call to function zcl_Init
   \   00003F   7907         MOV       R1,#0x7
   \   000041   12....       LCALL     `??zcl_Init::?relay`; Banked call to: zcl_Init
    151            bdb_Init( taskID++ );
   \   000044                ; Setup parameters for call to function bdb_Init
   \   000044   7908         MOV       R1,#0x8
   \   000046   12....       LCALL     `??bdb_Init::?relay`; Banked call to: bdb_Init
    152            zclLight_Init( taskID );
   \   000049                ; Setup parameters for call to function zclLight_Init
   \   000049   7909         MOV       R1,#0x9
   \   00004B   12....       LCALL     `??zclLight_Init::?relay`; Banked call to: zclLight_Init
    153          }
   \   00004E   D083         POP       DPH
   \   000050   D082         POP       DPL
   \   000052   02....       LJMP      ?BRET

   \                                 In  segment BANK_RELAYS, align 1
   \                     `??osalInitTasks::?relay`:
   \   000000   12....       LCALL   ?BDISPATCH
   \   000003   ......       DC24    osalInitTasks
    154          
    155          /*********************************************************************
    156          *********************************************************************/

   Maximum stack usage in bytes:

   ISTACK Function
   ------ --------
      2   osalInitTasks
        2   -> APSF_Init
        2   -> APS_Init
        2   -> Hal_Init
        2   -> ZDApp_Init
        2   -> ZDNwkMgr_Init
        2   -> bdb_Init
        2   -> macTaskInit
        2   -> nwk_init
        2   -> osal_mem_alloc
        2   -> osal_memset
        2   -> zclLight_Init
        2   -> zcl_Init


   Segment part sizes:

   Bytes  Function/Label
   -----  --------------
      85  osalInitTasks
       6  osalInitTasks::?relay
      20  tasksArr
       1  tasksCnt
       2  tasksEvents

 
 85 bytes in segment BANKED_CODE
  6 bytes in segment BANK_RELAYS
 21 bytes in segment XDATA_ROM_C
  2 bytes in segment XDATA_Z
 
  6 bytes of CODE     memory
 21 bytes of CONST    memory
 85 bytes of HUGECODE memory
  2 bytes of XDATA    memory

Errors: none
Warnings: none
